target datalayout = "e-m:e-p270:32:32-p271:32:32-p272:64:64-i64:64-i128:128-f80:128-n8:16:32:64-S128"
target triple = "x86_64-pc-linux-gnu"

@proto_register_fcoe.ett = internal global [1 x ptr] [ptr @ett_fcoe], align 8
@.str.14 = private unnamed_addr constant [28 x i8] c"Fibre Channel over Ethernet\00", align 1
@.str.15 = private unnamed_addr constant [5 x i8] c"FCoE\00", align 1
@.str.16 = private unnamed_addr constant [5 x i8] c"fcoe\00", align 1
@proto_fcoe = internal global i32 0, align 4
@fcoe_handle = internal global ptr null, align 8
@.str.17 = private unnamed_addr constant [10 x i8] c"ethertype\00", align 1

; Function Attrs: null_pointer_is_valid sspstrong uwtable
define hidden void @proto_register_fcoe() #0 {
  %1 = alloca ptr, align 8
  %2 = alloca ptr, align 8
  call void @llvm.lifetime.start.p0(i64 8, ptr %1) #3
  call void @llvm.lifetime.start.p0(i64 8, ptr %2) #3
  %3 = call i32 @proto_register_protocol(ptr noundef @.str.14, ptr noundef @.str.15, ptr noundef @.str.16)
  store i32 %3, ptr @proto_fcoe, align 4
  %4 = load i32, ptr @proto_fcoe, align 4
  %5 = call ptr @register_dissector(ptr noundef @.str.16, ptr noundef @dissect_fcoe, i32 noundef %4)
  store ptr %5, ptr @fcoe_handle, align 8
  %6 = load i32, ptr @proto_fcoe, align 4
  call void @proto_register_field_array(i32 noundef %6, ptr noundef @proto_register_fcoe.hf, i32 noundef 6)
  call void @proto_register_subtree_array(ptr noundef @proto_register_fcoe.ett, i32 noundef 1)
  %7 = load i32, ptr @proto_fcoe, align 4
  %8 = call ptr @expert_register_protocol(i32 noundef %7)
  store ptr %8, ptr %2, align 8
  %9 = load ptr, ptr %2, align 8
  call void @expert_register_field_array(ptr noundef %9, ptr noundef @proto_register_fcoe.ei, i32 noundef 1)
  %10 = load i32, ptr @proto_fcoe, align 4
  %11 = call ptr @prefs_register_protocol_obsolete(i32 noundef %10)
  store ptr %11, ptr %1, align 8
  %12 = load ptr, ptr %1, align 8
  call void @prefs_register_obsolete_preference(ptr noundef %12, ptr noundef @.str.17)
  call void @llvm.lifetime.end.p0(i64 8, ptr %2) #3
  call void @llvm.lifetime.end.p0(i64 8, ptr %1) #3
  ret void
}