; Function Attrs: null_pointer_is_valid sspstrong uwtable
define hidden void @proto_register_fcoe() local_unnamed_addr #0 {
  %1 = tail call i32 @proto_register_protocol(ptr noundef nonnull @.str.14, ptr noundef nonnull @.str.15, ptr noundef nonnull @.str.16)
  store i32 %1, ptr @proto_fcoe, align 4
  %2 = tail call ptr @register_dissector(ptr noundef nonnull @.str.16, ptr noundef nonnull @dissect_fcoe, i32 noundef %1)
  store ptr %2, ptr @fcoe_handle, align 8
  %3 = load i32, ptr @proto_fcoe, align 4
  tail call void @proto_register_field_array(i32 noundef %3, ptr noundef nonnull @proto_register_fcoe.hf, i32 noundef 6)
  tail call void @proto_register_subtree_array(ptr noundef nonnull @proto_register_fcoe.ett, i32 noundef 1)
  %4 = load i32, ptr @proto_fcoe, align 4
  %5 = tail call ptr @expert_register_protocol(i32 noundef %4)
  tail call void @expert_register_field_array(ptr noundef %5, ptr noundef nonnull @proto_register_fcoe.ei, i32 noundef 1)
  %6 = load i32, ptr @proto_fcoe, align 4
  %7 = tail call ptr @prefs_register_protocol_obsolete(i32 noundef %6)
  tail call void @prefs_register_obsolete_preference(ptr noundef %7, ptr noundef nonnull @.str.17)
  ret void
}